target datalayout = "e-m:e-p270:32:32-p271:32:32-p272:64:64-i64:64-i128:128-f80:128-n8:16:32:64-S128"
target triple = "x86_64-pc-linux-gnu"

%struct.elist = type { ptr, i64 }
%struct.Agobj_s = type { %struct.Agtag_s, ptr }
%struct.Agtag_s = type { i32, i64 }
%struct.Agrec_s = type { ptr, ptr }
%struct.boxf = type { %struct.pointf_s, %struct.pointf_s }
%struct.pointf_s = type { double, double }
%struct.Agnodeinfo_t = type { %struct.Agrec_s, ptr, ptr, %struct.pointf_s, double, double, %struct.boxf, double, double, double, double, double, ptr, ptr, ptr, i8, i8, i8, i8, i32, i32, i32, ptr, double, i8, i8, ptr, ptr, i8, i64, i8, i8, i8, ptr, ptr, %struct.elist, %struct.elist, %struct.elist, %struct.elist, %struct.elist, ptr, i32, ptr, i32, i32, double, %struct.elist, %struct.elist, %struct.elist, %struct.elist, ptr, i32, i32, i32, [1 x double] }
%struct.Agedge_s = type { %struct.Agobj_s, %struct.dtlink_s_, %struct.dtlink_s_, ptr }
%struct.dtlink_s_ = type { ptr, %union.anon }
%union.anon = type { ptr }

; Function Attrs: nounwind uwtable
define internal i32 @dfs_range_init(ptr noundef %0, ptr noundef %1, i32 noundef %2) #0 {
  %4 = alloca ptr, align 8
  %5 = alloca ptr, align 8
  %6 = alloca i32, align 4
  %7 = alloca i32, align 4
  %8 = alloca i32, align 4
  %9 = alloca ptr, align 8
  %10 = alloca ptr, align 8
  store ptr %0, ptr %4, align 8, !tbaa !48
  store ptr %1, ptr %5, align 8, !tbaa !19
  store i32 %2, ptr %6, align 4, !tbaa !8
  call void @llvm.lifetime.start.p0(i64 4, ptr %7) #14
  call void @llvm.lifetime.start.p0(i64 4, ptr %8) #14
  %11 = load i32, ptr %6, align 4, !tbaa !8
  store i32 %11, ptr %8, align 4, !tbaa !8
  %12 = load ptr, ptr %5, align 8, !tbaa !19
  %13 = load ptr, ptr %4, align 8, !tbaa !48
  %14 = getelementptr inbounds nuw %struct.Agobj_s, ptr %13, i32 0, i32 1
  %15 = load ptr, ptr %14, align 8, !tbaa !27
  %16 = getelementptr inbounds nuw %struct.Agnodeinfo_t, ptr %15, i32 0, i32 50
  store ptr %12, ptr %16, align 8, !tbaa !92
  %17 = load i32, ptr %6, align 4, !tbaa !8
  %18 = load ptr, ptr %4, align 8, !tbaa !48
  %19 = getelementptr inbounds nuw %struct.Agobj_s, ptr %18, i32 0, i32 1
  %20 = load ptr, ptr %19, align 8, !tbaa !27
  %21 = getelementptr inbounds nuw %struct.Agnodeinfo_t, ptr %20, i32 0, i32 51
  store i32 %17, ptr %21, align 8, !tbaa !108
  store i32 0, ptr %7, align 4, !tbaa !8
  br label %22

22:                                               ; preds = %67, %3
  %23 = load ptr, ptr %4, align 8, !tbaa !48
  %24 = getelementptr inbounds nuw %struct.Agobj_s, ptr %23, i32 0, i32 1
  %25 = load ptr, ptr %24, align 8, !tbaa !27
  %26 = getelementptr inbounds nuw %struct.Agnodeinfo_t, ptr %25, i32 0, i32 49
  %27 = getelementptr inbounds nuw %struct.elist, ptr %26, i32 0, i32 0
  %28 = load ptr, ptr %27, align 8, !tbaa !82
  %29 = load i32, ptr %7, align 4, !tbaa !8
  %30 = sext i32 %29 to i64
  %31 = getelementptr inbounds ptr, ptr %28, i64 %30
  %32 = load ptr, ptr %31, align 8, !tbaa !19
  %33 = icmp ne ptr %32, null
  br i1 %33, label %34, label %70

34:                                               ; preds = %22
  call void @llvm.lifetime.start.p0(i64 8, ptr %9) #14
  %35 = load ptr, ptr %4, align 8, !tbaa !48
  %36 = getelementptr inbounds nuw %struct.Agobj_s, ptr %35, i32 0, i32 1
  %37 = load ptr, ptr %36, align 8, !tbaa !27
  %38 = getelementptr inbounds nuw %struct.Agnodeinfo_t, ptr %37, i32 0, i32 49
  %39 = getelementptr inbounds nuw %struct.elist, ptr %38, i32 0, i32 0
  %40 = load ptr, ptr %39, align 8, !tbaa !82
  %41 = load i32, ptr %7, align 4, !tbaa !8
  %42 = sext i32 %41 to i64
  %43 = getelementptr inbounds ptr, ptr %40, i64 %42
  %44 = load ptr, ptr %43, align 8, !tbaa !19
  store ptr %44, ptr %9, align 8, !tbaa !19
  %45 = load ptr, ptr %9, align 8, !tbaa !19
  %46 = load ptr, ptr %5, align 8, !tbaa !19
  %47 = icmp ne ptr %45, %46
  br i1 %47, label %48, label %66

48:                                               ; preds = %34
  %49 = load ptr, ptr %9, align 8, !tbaa !19
  %50 = getelementptr inbounds nuw %struct.Agobj_s, ptr %49, i32 0, i32 0
  %51 = load i32, ptr %50, align 8
  %52 = and i32 %51, 3
  %53 = icmp eq i32 %52, 2
  br i1 %53, label %54, label %56

54:                                               ; preds = %48
  %55 = load ptr, ptr %9, align 8, !tbaa !19
  br label %59

56:                                               ; preds = %48
  %57 = load ptr, ptr %9, align 8, !tbaa !19
  %58 = getelementptr inbounds %struct.Agedge_s, ptr %57, i64 -1
  br label %59

59:                                               ; preds = %56, %54
  %60 = phi ptr [ %55, %54 ], [ %58, %56 ]
  %61 = getelementptr inbounds nuw %struct.Agedge_s, ptr %60, i32 0, i32 3
  %62 = load ptr, ptr %61, align 8, !tbaa !72
  %63 = load ptr, ptr %9, align 8, !tbaa !19
  %64 = load i32, ptr %8, align 4, !tbaa !8
  %65 = call i32 @dfs_range_init(ptr noundef %62, ptr noundef %63, i32 noundef %64)
  store i32 %65, ptr %8, align 4, !tbaa !8
  br label %66

66:                                               ; preds = %59, %34
  call void @llvm.lifetime.end.p0(i64 8, ptr %9) #14
  br label %67

67:                                               ; preds = %66
  %68 = load i32, ptr %7, align 4, !tbaa !8
  %69 = add nsw i32 %68, 1
  store i32 %69, ptr %7, align 4, !tbaa !8
  br label %22, !llvm.loop !153

70:                                               ; preds = %22
  store i32 0, ptr %7, align 4, !tbaa !8
  br label %71

71:                                               ; preds = %116, %70
  %72 = load ptr, ptr %4, align 8, !tbaa !48
  %73 = getelementptr inbounds nuw %struct.Agobj_s, ptr %72, i32 0, i32 1
  %74 = load ptr, ptr %73, align 8, !tbaa !27
  %75 = getelementptr inbounds nuw %struct.Agnodeinfo_t, ptr %74, i32 0, i32 48
  %76 = getelementptr inbounds nuw %struct.elist, ptr %75, i32 0, i32 0
  %77 = load ptr, ptr %76, align 8, !tbaa !79
  %78 = load i32, ptr %7, align 4, !tbaa !8
  %79 = sext i32 %78 to i64
  %80 = getelementptr inbounds ptr, ptr %77, i64 %79
  %81 = load ptr, ptr %80, align 8, !tbaa !19
  %82 = icmp ne ptr %81, null
  br i1 %82, label %83, label %119

83:                                               ; preds = %71
  call void @llvm.lifetime.start.p0(i64 8, ptr %10) #14
  %84 = load ptr, ptr %4, align 8, !tbaa !48
  %85 = getelementptr inbounds nuw %struct.Agobj_s, ptr %84, i32 0, i32 1
  %86 = load ptr, ptr %85, align 8, !tbaa !27
  %87 = getelementptr inbounds nuw %struct.Agnodeinfo_t, ptr %86, i32 0, i32 48
  %88 = getelementptr inbounds nuw %struct.elist, ptr %87, i32 0, i32 0
  %89 = load ptr, ptr %88, align 8, !tbaa !79
  %90 = load i32, ptr %7, align 4, !tbaa !8
  %91 = sext i32 %90 to i64
  %92 = getelementptr inbounds ptr, ptr %89, i64 %91
  %93 = load ptr, ptr %92, align 8, !tbaa !19
  store ptr %93, ptr %10, align 8, !tbaa !19
  %94 = load ptr, ptr %10, align 8, !tbaa !19
  %95 = load ptr, ptr %5, align 8, !tbaa !19
  %96 = icmp ne ptr %94, %95
  br i1 %96, label %97, label %115

97:                                               ; preds = %83
  %98 = load ptr, ptr %10, align 8, !tbaa !19
  %99 = getelementptr inbounds nuw %struct.Agobj_s, ptr %98, i32 0, i32 0
  %100 = load i32, ptr %99, align 8
  %101 = and i32 %100, 3
  %102 = icmp eq i32 %101, 3
  br i1 %102, label %103, label %105

103:                                              ; preds = %97
  %104 = load ptr, ptr %10, align 8, !tbaa !19
  br label %108

105:                                              ; preds = %97
  %106 = load ptr, ptr %10, align 8, !tbaa !19
  %107 = getelementptr inbounds %struct.Agedge_s, ptr %106, i64 1
  br label %108

108:                                              ; preds = %105, %103
  %109 = phi ptr [ %104, %103 ], [ %107, %105 ]
  %110 = getelementptr inbounds nuw %struct.Agedge_s, ptr %109, i32 0, i32 3
  %111 = load ptr, ptr %110, align 8, !tbaa !72
  %112 = load ptr, ptr %10, align 8, !tbaa !19
  %113 = load i32, ptr %8, align 4, !tbaa !8
  %114 = call i32 @dfs_range_init(ptr noundef %111, ptr noundef %112, i32 noundef %113)
  store i32 %114, ptr %8, align 4, !tbaa !8
  br label %115

115:                                              ; preds = %108, %83
  call void @llvm.lifetime.end.p0(i64 8, ptr %10) #14
  br label %116

116:                                              ; preds = %115
  %117 = load i32, ptr %7, align 4, !tbaa !8
  %118 = add nsw i32 %117, 1
  store i32 %118, ptr %7, align 4, !tbaa !8
  br label %71, !llvm.loop !154

119:                                              ; preds = %71
  %120 = load i32, ptr %8, align 4, !tbaa !8
  %121 = load ptr, ptr %4, align 8, !tbaa !48
  %122 = getelementptr inbounds nuw %struct.Agobj_s, ptr %121, i32 0, i32 1
  %123 = load ptr, ptr %122, align 8, !tbaa !27
  %124 = getelementptr inbounds nuw %struct.Agnodeinfo_t, ptr %123, i32 0, i32 52
  store i32 %120, ptr %124, align 4, !tbaa !107
  %125 = load i32, ptr %8, align 4, !tbaa !8
  %126 = add nsw i32 %125, 1
  call void @llvm.lifetime.end.p0(i64 4, ptr %8) #14
  call void @llvm.lifetime.end.p0(i64 4, ptr %7) #14
  ret i32 %126
}