; Function Attrs: nofree nosync nounwind memory(readwrite, inaccessiblemem: none) uwtable
define internal fastcc range(i32 -2147483647, -2147483648) i32 @dfs_range_init(ptr noundef readonly captures(none) %0, ptr noundef %1, i32 noundef %2) unnamed_addr #11 {
  %4 = getelementptr inbounds nuw i8, ptr %0, i64 16
  %5 = load ptr, ptr %4, align 8, !tbaa !6
  %6 = getelementptr inbounds nuw i8, ptr %5, i64 440
  store ptr %1, ptr %6, align 8, !tbaa !74
  %7 = getelementptr inbounds nuw i8, ptr %5, i64 448
  store i32 %2, ptr %7, align 8, !tbaa !111
  %8 = getelementptr inbounds nuw i8, ptr %5, i64 424
  %9 = load ptr, ptr %8, align 8, !tbaa !66
  %10 = load ptr, ptr %9, align 8, !tbaa !30
  %.not39 = icmp eq ptr %10, null
  br i1 %.not39, label %.preheader, label %.lr.ph

.preheader:                                       ; preds = %25, %3
  %11 = phi ptr [ %5, %3 ], [ %26, %25 ]
  %.031.lcssa = phi i32 [ %2, %3 ], [ %.132, %25 ]
  %12 = getelementptr inbounds nuw i8, ptr %11, i64 408
  %13 = load ptr, ptr %12, align 8, !tbaa !63
  %14 = load ptr, ptr %13, align 8, !tbaa !30
  %.not3542 = icmp eq ptr %14, null
  br i1 %.not3542, label %._crit_edge, label %.lr.ph45

.lr.ph:                                           ; preds = %3, %25
  %15 = phi ptr [ %26, %25 ], [ %5, %3 ]
  %indvars.iv = phi i64 [ %indvars.iv.next, %25 ], [ 0, %3 ]
  %16 = phi ptr [ %30, %25 ], [ %10, %3 ]
  %.03140 = phi i32 [ %.132, %25 ], [ %2, %3 ]
  %.not37 = icmp eq ptr %16, %1
  br i1 %.not37, label %25, label %17

17:                                               ; preds = %.lr.ph
  %18 = load i32, ptr %16, align 8
  %19 = and i32 %18, 3
  %20 = icmp eq i32 %19, 2
  %.idx38 = select i1 %20, i64 0, i64 -64
  %21 = getelementptr inbounds i8, ptr %16, i64 %.idx38
  %22 = getelementptr inbounds nuw i8, ptr %21, i64 56
  %23 = load ptr, ptr %22, align 8, !tbaa !56
  %24 = tail call fastcc i32 @dfs_range_init(ptr noundef %23, ptr noundef nonnull %16, i32 noundef %.03140)
  %.pre = load ptr, ptr %4, align 8, !tbaa !6
  br label %25

25:                                               ; preds = %17, %.lr.ph
  %26 = phi ptr [ %.pre, %17 ], [ %15, %.lr.ph ]
  %.132 = phi i32 [ %24, %17 ], [ %.03140, %.lr.ph ]
  %indvars.iv.next = add nuw nsw i64 %indvars.iv, 1
  %27 = getelementptr inbounds nuw i8, ptr %26, i64 424
  %28 = load ptr, ptr %27, align 8, !tbaa !66
  %29 = getelementptr inbounds nuw ptr, ptr %28, i64 %indvars.iv.next
  %30 = load ptr, ptr %29, align 8, !tbaa !30
  %.not = icmp eq ptr %30, null
  br i1 %.not, label %.preheader, label %.lr.ph, !llvm.loop !136

.lr.ph45:                                         ; preds = %.preheader, %41
  %31 = phi ptr [ %42, %41 ], [ %11, %.preheader ]
  %indvars.iv50 = phi i64 [ %indvars.iv.next51, %41 ], [ 0, %.preheader ]
  %32 = phi ptr [ %46, %41 ], [ %14, %.preheader ]
  %.243 = phi i32 [ %.3, %41 ], [ %.031.lcssa, %.preheader ]
  %.not36 = icmp eq ptr %32, %1
  br i1 %.not36, label %41, label %33

33:                                               ; preds = %.lr.ph45
  %34 = load i32, ptr %32, align 8
  %35 = and i32 %34, 3
  %36 = icmp eq i32 %35, 3
  %.idx = select i1 %36, i64 0, i64 64
  %37 = getelementptr inbounds nuw i8, ptr %32, i64 %.idx
  %38 = getelementptr inbounds nuw i8, ptr %37, i64 56
  %39 = load ptr, ptr %38, align 8, !tbaa !56
  %40 = tail call fastcc i32 @dfs_range_init(ptr noundef %39, ptr noundef nonnull %32, i32 noundef %.243)
  %.pre53 = load ptr, ptr %4, align 8, !tbaa !6
  br label %41

41:                                               ; preds = %33, %.lr.ph45
  %42 = phi ptr [ %.pre53, %33 ], [ %31, %.lr.ph45 ]
  %.3 = phi i32 [ %40, %33 ], [ %.243, %.lr.ph45 ]
  %indvars.iv.next51 = add nuw nsw i64 %indvars.iv50, 1
  %43 = getelementptr inbounds nuw i8, ptr %42, i64 408
  %44 = load ptr, ptr %43, align 8, !tbaa !63
  %45 = getelementptr inbounds nuw ptr, ptr %44, i64 %indvars.iv.next51
  %46 = load ptr, ptr %45, align 8, !tbaa !30
  %.not35 = icmp eq ptr %46, null
  br i1 %.not35, label %._crit_edge, label %.lr.ph45, !llvm.loop !137

._crit_edge:                                      ; preds = %41, %.preheader
  %.2.lcssa = phi i32 [ %.031.lcssa, %.preheader ], [ %.3, %41 ]
  %.lcssa = phi ptr [ %11, %.preheader ], [ %42, %41 ]
  %47 = getelementptr inbounds nuw i8, ptr %.lcssa, i64 452
  store i32 %.2.lcssa, ptr %47, align 4, !tbaa !110
  %48 = add nsw i32 %.2.lcssa, 1
  ret i32 %48
}